target datalayout = "e-m:e-p270:32:32-p271:32:32-p272:64:64-i64:64-i128:128-f80:128-n8:16:32:64-S128"
target triple = "x86_64-unknown-linux-gnu"

@stderr = external global ptr, align 8

; Function Attrs: nounwind sspstrong uwtable
define dso_local void @target_exception_dump(ptr noundef %env, ptr noundef %fmt, i32 noundef %code) #0 {
entry:
  %env.addr = alloca ptr, align 8
  %fmt.addr = alloca ptr, align 8
  %code.addr = alloca i32, align 4
  %logfile = alloca ptr, align 8
  store ptr %env, ptr %env.addr, align 8
  store ptr %fmt, ptr %fmt.addr, align 8
  store i32 %code, ptr %code.addr, align 4
  %0 = load ptr, ptr @stderr, align 8
  %1 = load ptr, ptr %env.addr, align 8
  %2 = load ptr, ptr %fmt.addr, align 8
  %3 = load i32, ptr %code.addr, align 4
  call void @excp_dump_file(ptr noundef %0, ptr noundef %1, ptr noundef %2, i32 noundef %3)
  %call = call zeroext i1 @qemu_log_separate()
  br i1 %call, label %if.then, label %if.end

if.then:                                          ; preds = %entry
  %call1 = call ptr @qemu_log_trylock()
  store ptr %call1, ptr %logfile, align 8
  %4 = load ptr, ptr %logfile, align 8
  %5 = load ptr, ptr %env.addr, align 8
  %6 = load ptr, ptr %fmt.addr, align 8
  %7 = load i32, ptr %code.addr, align 4
  call void @excp_dump_file(ptr noundef %4, ptr noundef %5, ptr noundef %6, i32 noundef %7)
  %8 = load ptr, ptr %logfile, align 8
  call void @qemu_log_unlock(ptr noundef %8)
  br label %if.end

if.end:                                           ; preds = %if.then, %entry
  ret void
}