; Function Attrs: nounwind sspstrong uwtable
define dso_local void @target_exception_dump(ptr noundef %env, ptr noundef readonly captures(none) %fmt, i32 noundef %code) local_unnamed_addr #2 {
entry:
  %0 = load ptr, ptr @stderr, align 8
  tail call fastcc void @excp_dump_file(ptr noundef %0, ptr noundef %env, ptr noundef %fmt, i32 noundef %code)
  %call = tail call zeroext i1 @qemu_log_separate() #27
  br i1 %call, label %if.then, label %if.end

if.then:                                          ; preds = %entry
  %call1 = tail call ptr @qemu_log_trylock() #27
  tail call fastcc void @excp_dump_file(ptr noundef %call1, ptr noundef %env, ptr noundef %fmt, i32 noundef %code)
  tail call void @qemu_log_unlock(ptr noundef %call1) #27
  br label %if.end

if.end:                                           ; preds = %if.then, %entry
  ret void
}